; Function Attrs: nounwind uwtable
define hidden i32 @ir_proto_2(ptr noundef %0, i8 noundef zeroext %1, i32 noundef %2, i32 noundef %3, i32 noundef %4) local_unnamed_addr #0 {
  %6 = alloca %struct._ir_proto_t, align 1
  store i8 %1, ptr %6, align 1
  %7 = trunc i32 %2 to i8
  %8 = getelementptr inbounds i8, ptr %6, i64 1
  store i8 %7, ptr %8, align 1
  %9 = getelementptr inbounds i8, ptr %6, i64 2
  store i8 2, ptr %9, align 1
  %10 = trunc i32 %3 to i8
  %11 = getelementptr inbounds i8, ptr %6, i64 3
  store i8 %10, ptr %11, align 1
  %12 = trunc i32 %4 to i8
  %13 = getelementptr inbounds i8, ptr %6, i64 4
  store i8 %12, ptr %13, align 1
  %14 = getelementptr inbounds i8, ptr %0, i64 336
  %15 = load ptr, ptr %14, align 8
  %.not.i = icmp eq ptr %15, null
  br i1 %.not.i, label %16, label %ir_strl.exit

16:                                               ; preds = %5
  tail call void @ir_strtab_init(ptr noundef nonnull %14, i32 noundef 64, i32 noundef 4096) #20
  br label %ir_strl.exit

ir_strl.exit:                                     ; preds = %5, %16
  %17 = getelementptr inbounds i8, ptr %0, i64 352
  %18 = load i32, ptr %17, align 8
  %19 = add i32 %18, 1
  %20 = call i32 @ir_strtab_lookup(ptr noundef nonnull %14, ptr noundef nonnull %6, i32 noundef 5, i32 noundef %19) #20
  ret i32 %20
}